; Function Attrs: mustprogress nofree norecurse nosync nounwind willreturn memory(argmem: read) uwtable
define noundef double @_ZNK32pxrInternal_v0_24__pxrReserved__10GfMatrix4f13GetHandednessEv(ptr noundef nonnull readonly align 4 captures(none) dereferenceable(64) %0) local_unnamed_addr #6 align 2 {
  %2 = load float, ptr %0, align 4
  %3 = getelementptr inbounds nuw i8, ptr %0, i64 16
  %4 = getelementptr inbounds nuw i8, ptr %0, i64 20
  %5 = load float, ptr %4, align 4
  %6 = fmul float %2, %5
  %7 = getelementptr inbounds nuw i8, ptr %0, i64 32
  %8 = getelementptr inbounds nuw i8, ptr %0, i64 40
  %9 = load float, ptr %8, align 4
  %10 = getelementptr inbounds nuw i8, ptr %0, i64 4
  %11 = load float, ptr %10, align 4
  %12 = getelementptr inbounds nuw i8, ptr %0, i64 24
  %13 = load float, ptr %12, align 4
  %14 = fmul float %11, %13
  %15 = load float, ptr %7, align 4
  %16 = fmul float %14, %15
  %17 = tail call float @llvm.fmuladd.f32(float %6, float %9, float %16)
  %18 = getelementptr inbounds nuw i8, ptr %0, i64 8
  %19 = load float, ptr %18, align 4
  %20 = load float, ptr %3, align 4
  %21 = fmul float %19, %20
  %22 = getelementptr inbounds nuw i8, ptr %0, i64 36
  %23 = load float, ptr %22, align 4
  %24 = tail call float @llvm.fmuladd.f32(float %21, float %23, float %17)
  %25 = fneg float %13
  %26 = fmul float %2, %25
  %27 = tail call float @llvm.fmuladd.f32(float %26, float %23, float %24)
  %28 = fneg float %20
  %29 = fmul float %11, %28
  %30 = tail call float @llvm.fmuladd.f32(float %29, float %9, float %27)
  %31 = fneg float %5
  %32 = fmul float %19, %31
  %33 = tail call float @llvm.fmuladd.f32(float %32, float %15, float %30)
  %34 = fcmp olt float %33, 0.000000e+00
  %35 = fcmp ogt float %33, 0.000000e+00
  %36 = uitofp i1 %35 to double
  %37 = select i1 %34, double -1.000000e+00, double %36
  ret double %37
}